target datalayout = "e-m:e-p270:32:32-p271:32:32-p272:64:64-i64:64-i128:128-f80:128-n8:16:32:64-S128"
target triple = "x86_64-pc-linux-gnu"

%struct.SDL_HIDAPI_Device = type { ptr, ptr, ptr, ptr, i16, i16, i16, ptr, %struct.SDL_GUID, i32, i32, i32, i32, i16, i16, i8, i32, i32, i32, ptr, ptr, ptr, ptr, %struct.SDL_AtomicInt, i32, ptr, i8, i8, i8, ptr, i32, ptr, ptr }
%struct.SDL_GUID = type { [16 x i8] }
%struct.SDL_AtomicInt = type { i32 }
%struct.SDL_DriverSteam_Context = type { ptr, i8, i8, i32, i64, i64, %struct.SteamControllerPacketAssembler, %struct.SteamControllerStateInternal_t, %struct.SteamControllerStateInternal_t }
%struct.SteamControllerPacketAssembler = type { [145 x i8], i32, i8 }
%struct.SteamControllerStateInternal_t = type { i32, i32, i64, i16, i16, i16, i16, i16, i16, i16, i16, i16, i16, i16, i16, i16, i16, i16, i16, i16, i16, float, float, float, float, i16, i16, i16, i16, i16, i16, [2 x i16], [2 x i16] }

@.str.15 = private unnamed_addr constant [30 x i8] c"Couldn't write feature report\00", align 1

; Function Attrs: nounwind uwtable
define internal zeroext i8 @GetSegmentHeader(i32 noundef %0, i1 noundef zeroext %1) #0 {
  %3 = alloca i32, align 4
  %4 = alloca i8, align 1
  %5 = alloca i8, align 1
  store i32 %0, ptr %3, align 4
  %6 = zext i1 %1 to i8
  store i8 %6, ptr %4, align 1
  call void @llvm.lifetime.start.p0(i64 1, ptr %5) #7
  store i8 -128, ptr %5, align 1
  %7 = load i32, ptr %3, align 4
  %8 = load i8, ptr %5, align 1
  %9 = zext i8 %8 to i32
  %10 = or i32 %9, %7
  %11 = trunc i32 %10 to i8
  store i8 %11, ptr %5, align 1
  %12 = load i8, ptr %4, align 1, !range !3, !noundef !4
  %13 = trunc i8 %12 to i1
  br i1 %13, label %14, label %19

14:                                               ; preds = %2
  %15 = load i8, ptr %5, align 1
  %16 = zext i8 %15 to i32
  %17 = or i32 %16, 64
  %18 = trunc i32 %17 to i8
  store i8 %18, ptr %5, align 1
  br label %19

19:                                               ; preds = %14, %2
  %20 = load i8, ptr %5, align 1
  call void @llvm.lifetime.end.p0(i64 1, ptr %5) #7
  ret i8 %20
}

; Function Attrs: nounwind uwtable
define internal i32 @SetFeatureReport(ptr noundef %0, ptr noundef %1, i32 noundef %2) #0 {
  %4 = alloca i32, align 4
  %5 = alloca ptr, align 8
  %6 = alloca ptr, align 8
  %7 = alloca i32, align 4
  %8 = alloca i32, align 4
  %9 = alloca i32, align 4
  %10 = alloca [20 x i8], align 16
  %11 = alloca ptr, align 8
  %12 = alloca i32, align 4
  %13 = alloca i32, align 4
  %14 = alloca i32, align 4
  store ptr %0, ptr %5, align 8
  store ptr %1, ptr %6, align 8
  store i32 %2, ptr %7, align 4
  call void @llvm.lifetime.start.p0(i64 4, ptr %8) #7
  store i32 -1, ptr %8, align 4
  %15 = load ptr, ptr %5, align 8
  %16 = getelementptr inbounds nuw %struct.SDL_HIDAPI_Device, ptr %15, i32 0, i32 15
  %17 = load i8, ptr %16, align 4, !range !3, !noundef !4
  %18 = trunc i8 %17 to i1
  br i1 %18, label %19, label %68

19:                                               ; preds = %3
  call void @llvm.lifetime.start.p0(i64 4, ptr %9) #7
  store i32 0, ptr %9, align 4
  call void @llvm.lifetime.start.p0(i64 20, ptr %10) #7
  call void @llvm.lifetime.start.p0(i64 8, ptr %11) #7
  %20 = load ptr, ptr %6, align 8
  %21 = getelementptr inbounds i8, ptr %20, i64 1
  store ptr %21, ptr %11, align 8
  %22 = load i32, ptr %7, align 4
  %23 = icmp slt i32 %22, 1
  br i1 %23, label %24, label %25

24:                                               ; preds = %19
  store i32 -1, ptr %4, align 4
  store i32 1, ptr %12, align 4
  br label %65

25:                                               ; preds = %19
  %26 = load i32, ptr %7, align 4
  %27 = add nsw i32 %26, -1
  store i32 %27, ptr %7, align 4
  br label %28

28:                                               ; preds = %37, %25
  %29 = load i32, ptr %7, align 4
  %30 = icmp sgt i32 %29, 0
  br i1 %30, label %31, label %64

31:                                               ; preds = %28
  call void @llvm.lifetime.start.p0(i64 4, ptr %13) #7
  %32 = load i32, ptr %7, align 4
  %33 = icmp sgt i32 %32, 18
  br i1 %33, label %34, label %35

34:                                               ; preds = %31
  br label %37

35:                                               ; preds = %31
  %36 = load i32, ptr %7, align 4
  br label %37

37:                                               ; preds = %35, %34
  %38 = phi i32 [ 18, %34 ], [ %36, %35 ]
  store i32 %38, ptr %13, align 4
  %39 = load i32, ptr %13, align 4
  %40 = load i32, ptr %7, align 4
  %41 = sub nsw i32 %40, %39
  store i32 %41, ptr %7, align 4
  %42 = getelementptr inbounds [20 x i8], ptr %10, i64 0, i64 0
  call void @llvm.memset.p0.i64(ptr align 16 %42, i8 0, i64 20, i1 false)
  %43 = getelementptr inbounds [20 x i8], ptr %10, i64 0, i64 0
  store i8 3, ptr %43, align 16
  %44 = load i32, ptr %9, align 4
  %45 = load i32, ptr %7, align 4
  %46 = icmp eq i32 %45, 0
  %47 = call zeroext i8 @GetSegmentHeader(i32 noundef %44, i1 noundef zeroext %46)
  %48 = getelementptr inbounds [20 x i8], ptr %10, i64 0, i64 1
  store i8 %47, ptr %48, align 1
  %49 = getelementptr inbounds [20 x i8], ptr %10, i64 0, i64 2
  %50 = load ptr, ptr %11, align 8
  %51 = load i32, ptr %13, align 4
  %52 = sext i32 %51 to i64
  call void @llvm.memcpy.p0.p0.i64(ptr align 2 %49, ptr align 1 %50, i64 %52, i1 false)
  %53 = load i32, ptr %13, align 4
  %54 = load ptr, ptr %11, align 8
  %55 = sext i32 %53 to i64
  %56 = getelementptr inbounds i8, ptr %54, i64 %55
  store ptr %56, ptr %11, align 8
  %57 = load i32, ptr %9, align 4
  %58 = add nsw i32 %57, 1
  store i32 %58, ptr %9, align 4
  %59 = load ptr, ptr %5, align 8
  %60 = getelementptr inbounds nuw %struct.SDL_HIDAPI_Device, ptr %59, i32 0, i32 22
  %61 = load ptr, ptr %60, align 8
  %62 = getelementptr inbounds [20 x i8], ptr %10, i64 0, i64 0
  %63 = call i32 @SDL_hid_send_feature_report_REAL(ptr noundef %61, ptr noundef %62, i64 noundef 20)
  store i32 %63, ptr %8, align 4
  call void @llvm.lifetime.end.p0(i64 4, ptr %13) #7
  br label %28, !llvm.loop !7

64:                                               ; preds = %28
  store i32 0, ptr %12, align 4
  br label %65

65:                                               ; preds = %64, %24
  call void @llvm.lifetime.end.p0(i64 8, ptr %11) #7
  call void @llvm.lifetime.end.p0(i64 20, ptr %10) #7
  call void @llvm.lifetime.end.p0(i64 4, ptr %9) #7
  %66 = load i32, ptr %12, align 4
  switch i32 %66, label %90 [
    i32 0, label %67
  ]

67:                                               ; preds = %65
  br label %88

68:                                               ; preds = %3
  call void @llvm.lifetime.start.p0(i64 4, ptr %14) #7
  store i32 0, ptr %14, align 4
  br label %69

69:                                               ; preds = %83, %68
  %70 = load i32, ptr %14, align 4
  %71 = icmp slt i32 %70, 50
  br i1 %71, label %73, label %72

72:                                               ; preds = %69
  store i32 4, ptr %12, align 4
  br label %86

73:                                               ; preds = %69
  %74 = load ptr, ptr %5, align 8
  %75 = getelementptr inbounds nuw %struct.SDL_HIDAPI_Device, ptr %74, i32 0, i32 22
  %76 = load ptr, ptr %75, align 8
  %77 = load ptr, ptr %6, align 8
  %78 = call i32 @SDL_hid_send_feature_report_REAL(ptr noundef %76, ptr noundef %77, i64 noundef 65)
  store i32 %78, ptr %8, align 4
  %79 = load i32, ptr %8, align 4
  %80 = icmp sge i32 %79, 0
  br i1 %80, label %81, label %82

81:                                               ; preds = %73
  store i32 4, ptr %12, align 4
  br label %86

82:                                               ; preds = %73
  call void @SDL_DelayNS_REAL(i64 noundef 500000)
  br label %83

83:                                               ; preds = %82
  %84 = load i32, ptr %14, align 4
  %85 = add nsw i32 %84, 1
  store i32 %85, ptr %14, align 4
  br label %69, !llvm.loop !8

86:                                               ; preds = %81, %72
  call void @llvm.lifetime.end.p0(i64 4, ptr %14) #7
  br label %87

87:                                               ; preds = %86
  br label %88

88:                                               ; preds = %87, %67
  %89 = load i32, ptr %8, align 4
  store i32 %89, ptr %4, align 4
  store i32 1, ptr %12, align 4
  br label %90

90:                                               ; preds = %88, %65
  call void @llvm.lifetime.end.p0(i64 4, ptr %8) #7
  %91 = load i32, ptr %4, align 4
  ret i32 %91
}

; Function Attrs: nounwind uwtable
define internal zeroext i1 @SetHomeLED(ptr noundef %0, i8 noundef zeroext %1) #0 {
  %3 = alloca i1, align 1
  %4 = alloca ptr, align 8
  %5 = alloca i8, align 1
  %6 = alloca [65 x i8], align 16
  %7 = alloca i32, align 4
  %8 = alloca i32, align 4
  store ptr %0, ptr %4, align 8
  store i8 %1, ptr %5, align 1
  call void @llvm.lifetime.start.p0(i64 65, ptr %6) #7
  call void @llvm.lifetime.start.p0(i64 4, ptr %7) #7
  store i32 0, ptr %7, align 4
  %9 = getelementptr inbounds [65 x i8], ptr %6, i64 0, i64 0
  call void @llvm.memset.p0.i64(ptr align 16 %9, i8 0, i64 65, i1 false)
  %10 = getelementptr inbounds [65 x i8], ptr %6, i64 0, i64 1
  store i8 -121, ptr %10, align 1
  %11 = load i32, ptr %7, align 4
  %12 = mul nsw i32 %11, 3
  %13 = add nsw i32 3, %12
  %14 = sext i32 %13 to i64
  %15 = getelementptr inbounds [65 x i8], ptr %6, i64 0, i64 %14
  store i8 45, ptr %15, align 1
  %16 = load i8, ptr %5, align 1
  %17 = zext i8 %16 to i16
  %18 = zext i16 %17 to i32
  %19 = and i32 %18, 255
  %20 = trunc i32 %19 to i8
  %21 = load i32, ptr %7, align 4
  %22 = mul nsw i32 %21, 3
  %23 = add nsw i32 3, %22
  %24 = add nsw i32 %23, 1
  %25 = sext i32 %24 to i64
  %26 = getelementptr inbounds [65 x i8], ptr %6, i64 0, i64 %25
  store i8 %20, ptr %26, align 1
  %27 = load i8, ptr %5, align 1
  %28 = zext i8 %27 to i16
  %29 = zext i16 %28 to i32
  %30 = ashr i32 %29, 8
  %31 = trunc i32 %30 to i8
  %32 = load i32, ptr %7, align 4
  %33 = mul nsw i32 %32, 3
  %34 = add nsw i32 3, %33
  %35 = add nsw i32 %34, 2
  %36 = sext i32 %35 to i64
  %37 = getelementptr inbounds [65 x i8], ptr %6, i64 0, i64 %36
  store i8 %31, ptr %37, align 1
  %38 = load i32, ptr %7, align 4
  %39 = add nsw i32 %38, 1
  store i32 %39, ptr %7, align 4
  %40 = load i32, ptr %7, align 4
  %41 = mul nsw i32 %40, 3
  %42 = trunc i32 %41 to i8
  %43 = getelementptr inbounds [65 x i8], ptr %6, i64 0, i64 2
  store i8 %42, ptr %43, align 2
  %44 = load ptr, ptr %4, align 8
  %45 = getelementptr inbounds [65 x i8], ptr %6, i64 0, i64 0
  %46 = load i32, ptr %7, align 4
  %47 = mul nsw i32 %46, 3
  %48 = add nsw i32 3, %47
  %49 = call i32 @SetFeatureReport(ptr noundef %44, ptr noundef %45, i32 noundef %48)
  %50 = icmp slt i32 %49, 0
  br i1 %50, label %51, label %53

51:                                               ; preds = %2
  %52 = call zeroext i1 (ptr, ...) @SDL_SetError_REAL(ptr noundef @.str.15)
  store i1 %52, ptr %3, align 1
  store i32 1, ptr %8, align 4
  br label %54

53:                                               ; preds = %2
  store i1 true, ptr %3, align 1
  store i32 1, ptr %8, align 4
  br label %54

54:                                               ; preds = %53, %51
  call void @llvm.lifetime.end.p0(i64 4, ptr %7) #7
  call void @llvm.lifetime.end.p0(i64 65, ptr %6) #7
  %55 = load i1, ptr %3, align 1
  ret i1 %55
}

; Function Attrs: nounwind uwtable
define internal void @SDL_HomeLEDHintChanged(ptr noundef %0, ptr noundef %1, ptr noundef %2, ptr noundef %3) #0 {
  %5 = alloca ptr, align 8
  %6 = alloca ptr, align 8
  %7 = alloca ptr, align 8
  %8 = alloca ptr, align 8
  %9 = alloca ptr, align 8
  %10 = alloca i32, align 4
  store ptr %0, ptr %5, align 8
  store ptr %1, ptr %6, align 8
  store ptr %2, ptr %7, align 8
  store ptr %3, ptr %8, align 8
  call void @llvm.lifetime.start.p0(i64 8, ptr %9) #7
  %11 = load ptr, ptr %5, align 8
  store ptr %11, ptr %9, align 8
  %12 = load ptr, ptr %8, align 8
  %13 = icmp ne ptr %12, null
  br i1 %13, label %14, label %45

14:                                               ; preds = %4
  %15 = load ptr, ptr %8, align 8
  %16 = load i8, ptr %15, align 1
  %17 = sext i8 %16 to i32
  %18 = icmp ne i32 %17, 0
  br i1 %18, label %19, label %45

19:                                               ; preds = %14
  call void @llvm.lifetime.start.p0(i64 4, ptr %10) #7
  %20 = load ptr, ptr %8, align 8
  %21 = call ptr @SDL_strchr_REAL(ptr noundef %20, i32 noundef 46)
  %22 = icmp ne ptr %21, null
  br i1 %22, label %23, label %32

23:                                               ; preds = %19
  %24 = load ptr, ptr %8, align 8
  %25 = call double @SDL_atof_REAL(ptr noundef %24)
  %26 = fmul double 1.000000e+02, %25
  %27 = fptosi double %26 to i32
  store i32 %27, ptr %10, align 4
  %28 = load i32, ptr %10, align 4
  %29 = icmp sgt i32 %28, 255
  br i1 %29, label %30, label %31

30:                                               ; preds = %23
  store i32 255, ptr %10, align 4
  br label %31

31:                                               ; preds = %30, %23
  br label %38

32:                                               ; preds = %19
  %33 = load ptr, ptr %8, align 8
  %34 = call zeroext i1 @SDL_GetStringBoolean(ptr noundef %33, i1 noundef zeroext true)
  br i1 %34, label %35, label %36

35:                                               ; preds = %32
  store i32 100, ptr %10, align 4
  br label %37

36:                                               ; preds = %32
  store i32 0, ptr %10, align 4
  br label %37

37:                                               ; preds = %36, %35
  br label %38

38:                                               ; preds = %37, %31
  %39 = load ptr, ptr %9, align 8
  %40 = getelementptr inbounds nuw %struct.SDL_DriverSteam_Context, ptr %39, i32 0, i32 0
  %41 = load ptr, ptr %40, align 8
  %42 = load i32, ptr %10, align 4
  %43 = trunc i32 %42 to i8
  %44 = call zeroext i1 @SetHomeLED(ptr noundef %41, i8 noundef zeroext %43)
  call void @llvm.lifetime.end.p0(i64 4, ptr %10) #7
  br label %45

45:                                               ; preds = %38, %14, %4
  call void @llvm.lifetime.end.p0(i64 8, ptr %9) #7
  ret void
}