; Function Attrs: nounwind uwtable
define internal void @SDL_HomeLEDHintChanged(ptr noundef readonly captures(none) %0, ptr readnone captures(none) %1, ptr readnone captures(none) %2, ptr noundef %3) #0 {
  %5 = alloca [20 x i8], align 16
  %6 = alloca [65 x i8], align 16
  %.not = icmp eq ptr %3, null
  br i1 %.not, label %41, label %7

7:                                                ; preds = %4
  %8 = load i8, ptr %3, align 1
  %.not9 = icmp eq i8 %8, 0
  br i1 %.not9, label %41, label %9

9:                                                ; preds = %7
  %10 = tail call ptr @SDL_strchr_REAL(ptr noundef nonnull %3, i32 noundef 46) #9
  %.not10 = icmp eq ptr %10, null
  br i1 %.not10, label %16, label %11

11:                                               ; preds = %9
  %12 = tail call double @SDL_atof_REAL(ptr noundef nonnull %3) #9
  %13 = fmul double %12, 1.000000e+02
  %14 = fptosi double %13 to i32
  %spec.store.select = tail call i32 @llvm.smin.i32(i32 %14, i32 255)
  %15 = trunc i32 %spec.store.select to i8
  br label %18

16:                                               ; preds = %9
  %17 = tail call zeroext i1 @SDL_GetStringBoolean(ptr noundef nonnull %3, i1 noundef zeroext true) #9
  %. = select i1 %17, i8 100, i8 0
  br label %18

18:                                               ; preds = %16, %11
  %.0 = phi i8 [ %15, %11 ], [ %., %16 ]
  %19 = load ptr, ptr %0, align 8
  call void @llvm.lifetime.start.p0(i64 65, ptr nonnull %6) #9
  call void @llvm.memset.p0.i64(ptr noundef nonnull align 16 dereferenceable(65) %6, i8 0, i64 65, i1 false)
  %20 = getelementptr inbounds nuw i8, ptr %6, i64 1
  store i8 -121, ptr %20, align 1
  %21 = getelementptr inbounds nuw i8, ptr %6, i64 3
  store i8 45, ptr %21, align 1
  %22 = getelementptr inbounds nuw i8, ptr %6, i64 4
  store i8 %.0, ptr %22, align 4
  %23 = getelementptr inbounds nuw i8, ptr %6, i64 2
  store i8 3, ptr %23, align 2
  %24 = getelementptr inbounds nuw i8, ptr %19, i64 84
  %25 = load i8, ptr %24, align 4, !range !3, !noundef !4
  %26 = trunc nuw i8 %25 to i1
  br i1 %26, label %.lr.ph.i.i, label %.preheader.i.i

.preheader.i.i:                                   ; preds = %18
  %27 = getelementptr inbounds nuw i8, ptr %19, i64 128
  br label %34

.lr.ph.i.i:                                       ; preds = %18
  call void @llvm.lifetime.start.p0(i64 20, ptr nonnull %5) #9
  %28 = getelementptr inbounds nuw i8, ptr %5, i64 1
  %29 = getelementptr inbounds nuw i8, ptr %5, i64 2
  %30 = getelementptr inbounds nuw i8, ptr %19, i64 128
  call void @llvm.memset.p0.i64(ptr noundef nonnull align 16 dereferenceable(20) %5, i8 0, i64 20, i1 false)
  store i8 3, ptr %5, align 16
  store i8 -64, ptr %28, align 1
  call void @llvm.memcpy.p0.p0.i64(ptr noundef nonnull align 2 dereferenceable(5) %29, ptr noundef nonnull align 1 dereferenceable(5) %20, i64 5, i1 false)
  %31 = load ptr, ptr %30, align 8
  %32 = call i32 @SDL_hid_send_feature_report_REAL(ptr noundef %31, ptr noundef nonnull %5, i64 noundef 20) #9
  call void @llvm.lifetime.end.p0(i64 20, ptr nonnull %5) #9
  %33 = icmp slt i32 %32, 0
  br i1 %33, label %SetFeatureReport.exit.thread.i, label %SetHomeLED.exit

34:                                               ; preds = %38, %.preheader.i.i
  %.034.i.i = phi i32 [ 0, %.preheader.i.i ], [ %39, %38 ]
  %35 = load ptr, ptr %27, align 8
  %36 = call i32 @SDL_hid_send_feature_report_REAL(ptr noundef %35, ptr noundef nonnull %6, i64 noundef 65) #9
  %37 = icmp sgt i32 %36, -1
  br i1 %37, label %SetHomeLED.exit, label %38

38:                                               ; preds = %34
  call void @SDL_DelayNS_REAL(i64 noundef 500000) #9
  %39 = add nuw nsw i32 %.034.i.i, 1
  %exitcond.not.i.i = icmp eq i32 %39, 50
  br i1 %exitcond.not.i.i, label %SetFeatureReport.exit.thread.i, label %34, !llvm.loop !5

SetFeatureReport.exit.thread.i:                   ; preds = %38, %.lr.ph.i.i
  %40 = call zeroext i1 (ptr, ...) @SDL_SetError_REAL(ptr noundef nonnull @.str.15) #9
  br label %SetHomeLED.exit

SetHomeLED.exit:                                  ; preds = %34, %.lr.ph.i.i, %SetFeatureReport.exit.thread.i
  call void @llvm.lifetime.end.p0(i64 65, ptr nonnull %6) #9
  br label %41

41:                                               ; preds = %SetHomeLED.exit, %7, %4
  ret void
}